target datalayout = "e-m:e-p270:32:32-p271:32:32-p272:64:64-i64:64-i128:128-f80:128-n8:16:32:64-S128"
target triple = "x86_64-pc-linux-gnu"

%struct._capture_file = type { ptr, i32, ptr, ptr, i8, i8, i8, i64, i16, i32, i32, i32, ptr, i32, i64, i32, i32, i32, i32, i8, i32, %struct.nstime_t, i32, ptr, ptr, ptr, i8, i8, i32, ptr, i8, i8, i8, i8, i8, i32, i32, i8, ptr, i32, i32, i8, %struct.packet_provider_data, i32, i32, %struct.epan_column_info, ptr, ptr, ptr, %struct.wtap_rec, %struct.Buffer, ptr, i64, i32 }
%struct.nstime_t = type { i64, i32 }
%struct.packet_provider_data = type { ptr, ptr, ptr, ptr, ptr, ptr }
%struct.epan_column_info = type { ptr, i32, ptr, ptr, ptr, %struct.col_expr_t, i8, ptr }
%struct.col_expr_t = type { ptr, ptr }
%struct.wtap_rec = type { i32, i32, i32, %struct.nstime_t, i32, %struct.nstime_t, i8, %union.anon, ptr, i8, %struct.Buffer, %struct.Buffer }
%union.anon = type { %struct.wtap_packet_header }
%struct.wtap_packet_header = type { i32, i32, i32, i32, %union.wtap_pseudo_header }
%union.wtap_pseudo_header = type { %struct.erf_mc_phdr }
%struct.erf_mc_phdr = type { %struct.erf_phdr, [16 x %struct.erf_ehdr], %union.anon.1 }
%struct.erf_phdr = type { i64, i8, i8, i16, i16, i16 }
%struct.erf_ehdr = type { i64 }
%union.anon.1 = type { i32 }
%struct.Buffer = type { ptr, i64, i64, i64 }

; Function Attrs: null_pointer_is_valid sspstrong uwtable
define hidden void @cf_update_section_comments(ptr noundef %0, i32 noundef %1, ptr noundef %2) #1 {
  %4 = alloca ptr, align 8
  %5 = alloca i32, align 4
  %6 = alloca ptr, align 8
  %7 = alloca ptr, align 8
  %8 = alloca ptr, align 8
  %9 = alloca i32, align 4
  %10 = alloca i32, align 4
  %11 = alloca i32, align 4
  %12 = alloca ptr, align 8
  store ptr %0, ptr %4, align 8
  store i32 %1, ptr %5, align 4
  store ptr %2, ptr %6, align 8
  call void @llvm.lifetime.start.p0(i64 8, ptr %7) #19
  call void @llvm.lifetime.start.p0(i64 8, ptr %8) #19
  %13 = load ptr, ptr %4, align 8
  %14 = getelementptr inbounds nuw %struct._capture_file, ptr %13, i32 0, i32 42
  %15 = getelementptr inbounds nuw %struct.packet_provider_data, ptr %14, i32 0, i32 0
  %16 = load ptr, ptr %15, align 8
  %17 = load i32, ptr %5, align 4
  %18 = call ptr @wtap_file_get_shb(ptr noundef %16, i32 noundef %17)
  store ptr %18, ptr %7, align 8
  %19 = load ptr, ptr %7, align 8
  %20 = icmp eq ptr %19, null
  br i1 %20, label %21, label %22

21:                                               ; preds = %3
  store i32 1, ptr %9, align 4
  br label %83

22:                                               ; preds = %3
  call void @llvm.lifetime.start.p0(i64 4, ptr %10) #19
  %23 = load ptr, ptr %6, align 8
  %24 = call i32 @g_strv_length(ptr noundef %23)
  store i32 %24, ptr %10, align 4
  call void @llvm.lifetime.start.p0(i64 4, ptr %11) #19
  call void @llvm.lifetime.start.p0(i64 8, ptr %12) #19
  store i32 0, ptr %11, align 4
  br label %25

25:                                               ; preds = %61, %22
  %26 = load i32, ptr %11, align 4
  %27 = load i32, ptr %10, align 4
  %28 = icmp ult i32 %26, %27
  br i1 %28, label %29, label %64

29:                                               ; preds = %25
  %30 = load ptr, ptr %6, align 8
  %31 = load i32, ptr %11, align 4
  %32 = zext i32 %31 to i64
  %33 = getelementptr ptr, ptr %30, i64 %32
  %34 = load ptr, ptr %33, align 8
  store ptr %34, ptr %12, align 8
  %35 = load ptr, ptr %7, align 8
  %36 = load i32, ptr %11, align 4
  %37 = call i32 @wtap_block_get_nth_string_option_value(ptr noundef %35, i32 noundef 1, i32 noundef %36, ptr noundef %8)
  %38 = icmp ne i32 %37, 0
  br i1 %38, label %39, label %45

39:                                               ; preds = %29
  %40 = load ptr, ptr %7, align 8
  %41 = load ptr, ptr %12, align 8
  %42 = call i32 @wtap_block_add_string_option_owned(ptr noundef %40, i32 noundef 1, ptr noundef %41)
  %43 = load ptr, ptr %4, align 8
  %44 = getelementptr inbounds nuw %struct._capture_file, ptr %43, i32 0, i32 5
  store i8 1, ptr %44, align 1
  br label %60

45:                                               ; preds = %29
  %46 = load ptr, ptr %8, align 8
  %47 = load ptr, ptr %12, align 8
  %48 = call i32 @strcmp(ptr noundef %46, ptr noundef %47) #25
  %49 = icmp ne i32 %48, 0
  br i1 %49, label %50, label %58

50:                                               ; preds = %45
  %51 = load ptr, ptr %7, align 8
  %52 = load ptr, ptr %12, align 8
  %53 = load ptr, ptr %12, align 8
  %54 = call i64 @strlen(ptr noundef %53) #25
  %55 = call i32 @wtap_block_set_nth_string_option_value(ptr noundef %51, i32 noundef 1, i32 noundef 0, ptr noundef %52, i64 noundef %54)
  %56 = load ptr, ptr %4, align 8
  %57 = getelementptr inbounds nuw %struct._capture_file, ptr %56, i32 0, i32 5
  store i8 1, ptr %57, align 1
  br label %58

58:                                               ; preds = %50, %45
  %59 = load ptr, ptr %12, align 8
  call void @g_free(ptr noundef %59)
  br label %60

60:                                               ; preds = %58, %39
  br label %61

61:                                               ; preds = %60
  %62 = load i32, ptr %11, align 4
  %63 = add i32 %62, 1
  store i32 %63, ptr %11, align 4
  br label %25, !llvm.loop !53

64:                                               ; preds = %25
  %65 = load ptr, ptr %6, align 8
  call void @g_free(ptr noundef %65)
  %66 = load ptr, ptr %7, align 8
  %67 = call i32 @wtap_block_count_option(ptr noundef %66, i32 noundef 1)
  store i32 %67, ptr %11, align 4
  br label %68

68:                                               ; preds = %79, %64
  %69 = load i32, ptr %11, align 4
  %70 = load i32, ptr %10, align 4
  %71 = icmp ugt i32 %69, %70
  br i1 %71, label %72, label %82

72:                                               ; preds = %68
  %73 = load ptr, ptr %7, align 8
  %74 = load i32, ptr %11, align 4
  %75 = sub i32 %74, 1
  %76 = call i32 @wtap_block_remove_nth_option_instance(ptr noundef %73, i32 noundef 1, i32 noundef %75)
  %77 = load ptr, ptr %4, align 8
  %78 = getelementptr inbounds nuw %struct._capture_file, ptr %77, i32 0, i32 5
  store i8 1, ptr %78, align 1
  br label %79

79:                                               ; preds = %72
  %80 = load i32, ptr %11, align 4
  %81 = add i32 %80, -1
  store i32 %81, ptr %11, align 4
  br label %68, !llvm.loop !54

82:                                               ; preds = %68
  call void @llvm.lifetime.end.p0(i64 8, ptr %12) #19
  call void @llvm.lifetime.end.p0(i64 4, ptr %11) #19
  call void @llvm.lifetime.end.p0(i64 4, ptr %10) #19
  store i32 0, ptr %9, align 4
  br label %83

83:                                               ; preds = %82, %21
  call void @llvm.lifetime.end.p0(i64 8, ptr %8) #19
  call void @llvm.lifetime.end.p0(i64 8, ptr %7) #19
  %84 = load i32, ptr %9, align 4
  switch i32 %84, label %86 [
    i32 0, label %85
    i32 1, label %85
  ]

85:                                               ; preds = %83, %83
  ret void

86:                                               ; preds = %83
  unreachable
}