; Function Attrs: null_pointer_is_valid sspstrong uwtable
define hidden void @cf_update_section_comments(ptr noundef captures(none) %0, i32 noundef %1, ptr noundef %2) local_unnamed_addr #1 {
  %4 = alloca ptr, align 8
  call void @llvm.lifetime.start.p0(i64 8, ptr nonnull %4) #23
  %5 = getelementptr inbounds nuw i8, ptr %0, i64 224
  %6 = load ptr, ptr %5, align 8
  %7 = tail call ptr @wtap_file_get_shb(ptr noundef %6, i32 noundef %1)
  %8 = icmp eq ptr %7, null
  br i1 %8, label %.loopexit, label %9

9:                                                ; preds = %3
  %10 = tail call i32 @g_strv_length(ptr noundef %2)
  %.not34 = icmp eq i32 %10, 0
  br i1 %.not34, label %._crit_edge, label %.lr.ph

.lr.ph:                                           ; preds = %9
  %11 = getelementptr inbounds nuw i8, ptr %0, i64 33
  %wide.trip.count = zext i32 %10 to i64
  br label %12

12:                                               ; preds = %.lr.ph, %26
  %indvars.iv = phi i64 [ 0, %.lr.ph ], [ %indvars.iv.next, %26 ]
  %13 = getelementptr ptr, ptr %2, i64 %indvars.iv
  %14 = load ptr, ptr %13, align 8
  %15 = trunc nuw i64 %indvars.iv to i32
  %16 = call i32 @wtap_block_get_nth_string_option_value(ptr noundef nonnull %7, i32 noundef 1, i32 noundef %15, ptr noundef nonnull %4)
  %.not = icmp eq i32 %16, 0
  br i1 %.not, label %19, label %17

17:                                               ; preds = %12
  %18 = call i32 @wtap_block_add_string_option_owned(ptr noundef nonnull %7, i32 noundef 1, ptr noundef %14)
  store i8 1, ptr %11, align 1
  br label %26

19:                                               ; preds = %12
  %20 = load ptr, ptr %4, align 8
  %21 = call i32 @strcmp(ptr noundef %20, ptr noundef %14) #26
  %.not29 = icmp eq i32 %21, 0
  br i1 %.not29, label %25, label %22

22:                                               ; preds = %19
  %23 = call i64 @strlen(ptr noundef %14) #26
  %24 = call i32 @wtap_block_set_nth_string_option_value(ptr noundef nonnull %7, i32 noundef 1, i32 noundef 0, ptr noundef %14, i64 noundef %23)
  store i8 1, ptr %11, align 1
  br label %25

25:                                               ; preds = %22, %19
  call void @g_free(ptr noundef %14)
  br label %26

26:                                               ; preds = %17, %25
  %indvars.iv.next = add nuw nsw i64 %indvars.iv, 1
  %exitcond.not = icmp eq i64 %indvars.iv.next, %wide.trip.count
  br i1 %exitcond.not, label %._crit_edge, label %12, !llvm.loop !54

._crit_edge:                                      ; preds = %26, %9
  call void @g_free(ptr noundef %2)
  %27 = call i32 @wtap_block_count_option(ptr noundef nonnull %7, i32 noundef 1)
  %28 = icmp ugt i32 %27, %10
  br i1 %28, label %.lr.ph33, label %.loopexit

.lr.ph33:                                         ; preds = %._crit_edge
  %29 = getelementptr inbounds nuw i8, ptr %0, i64 33
  br label %30

30:                                               ; preds = %.lr.ph33, %30
  %.131 = phi i32 [ %27, %.lr.ph33 ], [ %31, %30 ]
  %31 = add i32 %.131, -1
  %32 = call i32 @wtap_block_remove_nth_option_instance(ptr noundef nonnull %7, i32 noundef 1, i32 noundef %31)
  store i8 1, ptr %29, align 1
  %33 = icmp ugt i32 %31, %10
  br i1 %33, label %30, label %.loopexit, !llvm.loop !55

.loopexit:                                        ; preds = %30, %._crit_edge, %3
  call void @llvm.lifetime.end.p0(i64 8, ptr nonnull %4) #23
  ret void
}